; Function Attrs: nounwind sspstrong uwtable
define internal void @dbus_kbd_qemu_leds_updated(ptr noundef %data, i32 noundef %ledstate) #0 {
entry:
  %0 = load atomic i64, ptr @dbus_display_console_get_type.static_g_define_type_id seq_cst, align 8
  %tobool.not.i.i = icmp eq i64 %0, 0
  br i1 %tobool.not.i.i, label %land.rhs.i.i, label %DBUS_DISPLAY_CONSOLE.exit

land.rhs.i.i:                                     ; preds = %entry
  %call.i.i = tail call i32 @g_once_init_enter(ptr noundef nonnull @dbus_display_console_get_type.static_g_define_type_id) #9
  %tobool2.not.i.i = icmp eq i32 %call.i.i, 0
  br i1 %tobool2.not.i.i, label %DBUS_DISPLAY_CONSOLE.exit, label %if.then.i.i

if.then.i.i:                                      ; preds = %land.rhs.i.i
  %call.i.i.i = tail call i64 @g_dbus_object_skeleton_get_type() #10
  %call1.i.i.i = tail call ptr @g_intern_static_string(ptr noundef nonnull @.str.25) #9
  %call2.i.i.i = tail call i64 @g_type_register_static_simple(i64 noundef %call.i.i.i, ptr noundef %call1.i.i.i, i32 noundef 208, ptr noundef nonnull @dbus_display_console_class_intern_init, i32 noundef 176, ptr noundef nonnull @dbus_display_console_init, i32 noundef 0) #9
  tail call void @g_once_init_leave(ptr noundef nonnull @dbus_display_console_get_type.static_g_define_type_id, i64 noundef %call2.i.i.i) #9
  br label %DBUS_DISPLAY_CONSOLE.exit

DBUS_DISPLAY_CONSOLE.exit:                        ; preds = %entry, %land.rhs.i.i, %if.then.i.i
  %1 = load i64, ptr @dbus_display_console_get_type.static_g_define_type_id, align 8
  %call1.i = tail call ptr @g_type_check_instance_cast(ptr noundef %data, i64 noundef %1) #9
  %iface_kbd = getelementptr inbounds nuw i8, ptr %call1.i, i64 104
  %2 = load ptr, ptr %iface_kbd, align 8
  tail call void @qemu_dbus_display1_keyboard_set_modifiers(ptr noundef %2, i32 noundef %ledstate) #9
  ret void
}